target datalayout = "e-m:e-p270:32:32-p271:32:32-p272:64:64-i64:64-i128:128-f80:128-n8:16:32:64-S128"
target triple = "x86_64-pc-linux-gnu"

%struct.curl_mimepart = type { ptr, ptr, i32, i32, ptr, ptr, ptr, ptr, ptr, ptr, ptr, ptr, ptr, ptr, ptr, i64, %struct.mime_state, ptr, %struct.mime_encoder_state, i64 }
%struct.mime_state = type { i32, ptr, i64 }
%struct.mime_encoder_state = type { i64, i64, i64, [256 x i8] }

; Function Attrs: nounwind uwtable
define dso_local i32 @curl_mime_headers(ptr noundef %0, ptr noundef %1, i32 noundef %2) #0 {
  %4 = alloca i32, align 4
  %5 = alloca ptr, align 8
  %6 = alloca ptr, align 8
  %7 = alloca i32, align 4
  store ptr %0, ptr %5, align 8, !tbaa !4
  store ptr %1, ptr %6, align 8, !tbaa !47
  store i32 %2, ptr %7, align 4, !tbaa !45
  %8 = load ptr, ptr %5, align 8, !tbaa !4
  %9 = icmp ne ptr %8, null
  br i1 %9, label %11, label %10

10:                                               ; preds = %3
  store i32 43, ptr %4, align 4
  br label %47

11:                                               ; preds = %3
  %12 = load ptr, ptr %5, align 8, !tbaa !4
  %13 = getelementptr inbounds nuw %struct.curl_mimepart, ptr %12, i32 0, i32 3
  %14 = load i32, ptr %13, align 4, !tbaa !20
  %15 = and i32 %14, 1
  %16 = icmp ne i32 %15, 0
  br i1 %16, label %17, label %32

17:                                               ; preds = %11
  %18 = load ptr, ptr %5, align 8, !tbaa !4
  %19 = getelementptr inbounds nuw %struct.curl_mimepart, ptr %18, i32 0, i32 11
  %20 = load ptr, ptr %19, align 8, !tbaa !21
  %21 = load ptr, ptr %6, align 8, !tbaa !47
  %22 = icmp ne ptr %20, %21
  br i1 %22, label %23, label %27

23:                                               ; preds = %17
  %24 = load ptr, ptr %5, align 8, !tbaa !4
  %25 = getelementptr inbounds nuw %struct.curl_mimepart, ptr %24, i32 0, i32 11
  %26 = load ptr, ptr %25, align 8, !tbaa !21
  call void @curl_slist_free_all(ptr noundef %26)
  br label %27

27:                                               ; preds = %23, %17
  %28 = load ptr, ptr %5, align 8, !tbaa !4
  %29 = getelementptr inbounds nuw %struct.curl_mimepart, ptr %28, i32 0, i32 3
  %30 = load i32, ptr %29, align 4, !tbaa !20
  %31 = and i32 %30, -2
  store i32 %31, ptr %29, align 4, !tbaa !20
  br label %32

32:                                               ; preds = %27, %11
  %33 = load ptr, ptr %6, align 8, !tbaa !47
  %34 = load ptr, ptr %5, align 8, !tbaa !4
  %35 = getelementptr inbounds nuw %struct.curl_mimepart, ptr %34, i32 0, i32 11
  store ptr %33, ptr %35, align 8, !tbaa !21
  %36 = load ptr, ptr %6, align 8, !tbaa !47
  %37 = icmp ne ptr %36, null
  br i1 %37, label %38, label %46

38:                                               ; preds = %32
  %39 = load i32, ptr %7, align 4, !tbaa !45
  %40 = icmp ne i32 %39, 0
  br i1 %40, label %41, label %46

41:                                               ; preds = %38
  %42 = load ptr, ptr %5, align 8, !tbaa !4
  %43 = getelementptr inbounds nuw %struct.curl_mimepart, ptr %42, i32 0, i32 3
  %44 = load i32, ptr %43, align 4, !tbaa !20
  %45 = or i32 %44, 1
  store i32 %45, ptr %43, align 4, !tbaa !20
  br label %46

46:                                               ; preds = %41, %38, %32
  store i32 0, ptr %4, align 4
  br label %47

47:                                               ; preds = %46, %10
  %48 = load i32, ptr %4, align 4
  ret i32 %48
}