; Function Attrs: nounwind uwtable
define dso_local range(i32 0, 44) i32 @curl_mime_headers(ptr noundef %0, ptr noundef %1, i32 noundef %2) local_unnamed_addr #0 {
  %.not = icmp eq ptr %0, null
  br i1 %.not, label %22, label %4

4:                                                ; preds = %3
  %5 = getelementptr inbounds nuw i8, ptr %0, i64 20
  %6 = load i32, ptr %5, align 4, !tbaa !24
  %7 = and i32 %6, 1
  %.not14 = icmp eq i32 %7, 0
  br i1 %.not14, label %15, label %8

8:                                                ; preds = %4
  %9 = getelementptr inbounds nuw i8, ptr %0, i64 80
  %10 = load ptr, ptr %9, align 8, !tbaa !28
  %.not15 = icmp eq ptr %10, %1
  br i1 %.not15, label %12, label %11

11:                                               ; preds = %8
  tail call void @curl_slist_free_all(ptr noundef %10) #18
  %.pre = load i32, ptr %5, align 4, !tbaa !24
  br label %12

12:                                               ; preds = %11, %8
  %13 = phi i32 [ %.pre, %11 ], [ %6, %8 ]
  %14 = and i32 %13, -2
  store i32 %14, ptr %5, align 4, !tbaa !24
  br label %15

15:                                               ; preds = %12, %4
  %16 = phi i32 [ %14, %12 ], [ %6, %4 ]
  %17 = getelementptr inbounds nuw i8, ptr %0, i64 80
  store ptr %1, ptr %17, align 8, !tbaa !28
  %18 = icmp ne ptr %1, null
  %19 = icmp ne i32 %2, 0
  %or.cond = and i1 %18, %19
  br i1 %or.cond, label %20, label %22

20:                                               ; preds = %15
  %21 = or i32 %16, 1
  store i32 %21, ptr %5, align 4, !tbaa !24
  br label %22

22:                                               ; preds = %15, %20, %3
  %.0 = phi i32 [ 43, %3 ], [ 0, %20 ], [ 0, %15 ]
  ret i32 %.0
}